; Function Attrs: nounwind uwtable
define noalias noundef ptr @Dau_ExactNpnForClasses(ptr noundef readonly captures(none) %0, ptr noundef readonly captures(none) %1, i32 noundef %2, i32 %3) local_unnamed_addr #0 {
  %5 = alloca [1024 x i64], align 16
  %6 = alloca [1024 x i64], align 16
  %7 = alloca i64, align 8
  %8 = getelementptr i8, ptr %1, i64 4
  %.val17 = load i32, ptr %8, align 4, !tbaa !9
  %9 = tail call noalias dereferenceable_or_null(16) ptr @malloc(i64 noundef 16) #28
  %10 = add i32 %.val17, -1
  %or.cond.i.i = icmp ult i32 %10, 15
  %spec.store.select.i.i = select i1 %or.cond.i.i, i32 16, i32 %.val17
  store i32 %spec.store.select.i.i, ptr %9, align 8, !tbaa !56
  %.not.i.i = icmp eq i32 %spec.store.select.i.i, 0
  br i1 %.not.i.i, label %Vec_WrdStart.exit, label %11

11:                                               ; preds = %4
  %12 = sext i32 %spec.store.select.i.i to i64
  %13 = shl nsw i64 %12, 3
  %14 = tail call noalias ptr @malloc(i64 noundef %13) #28
  br label %Vec_WrdStart.exit

Vec_WrdStart.exit:                                ; preds = %4, %11
  %15 = phi ptr [ %14, %11 ], [ null, %4 ]
  %16 = getelementptr inbounds nuw i8, ptr %9, i64 4
  %17 = getelementptr inbounds nuw i8, ptr %9, i64 8
  store ptr %15, ptr %17, align 8, !tbaa !59
  store i32 %.val17, ptr %16, align 4, !tbaa !60
  %18 = sext i32 %.val17 to i64
  %19 = shl nsw i64 %18, 3
  tail call void @llvm.memset.p0.i64(ptr align 8 %15, i8 0, i64 %19, i1 false)
  call void @llvm.lifetime.start.p0(i64 8192, ptr nonnull %5) #26
  call void @llvm.lifetime.start.p0(i64 8192, ptr nonnull %6) #26
  call void @llvm.lifetime.start.p0(i64 8, ptr nonnull %7) #26
  %20 = tail call ptr @setPermInfoPtr(i32 noundef %2) #26
  %.val20 = load i32, ptr %8, align 4, !tbaa !9
  %21 = icmp sgt i32 %.val20, 0
  br i1 %21, label %.lr.ph, label %.critedge

.lr.ph:                                           ; preds = %Vec_WrdStart.exit
  %22 = getelementptr i8, ptr %1, i64 8
  %23 = getelementptr inbounds nuw i8, ptr %0, i64 24
  %24 = getelementptr inbounds nuw i8, ptr %0, i64 8
  %25 = getelementptr inbounds nuw i8, ptr %0, i64 12
  br label %26

26:                                               ; preds = %.lr.ph, %48
  %.val23 = phi i32 [ %.val20, %.lr.ph ], [ %.val, %48 ]
  %indvars.iv = phi i64 [ 0, %.lr.ph ], [ %indvars.iv.next, %48 ]
  %.val18 = load ptr, ptr %22, align 8, !tbaa !15
  %27 = getelementptr inbounds nuw i32, ptr %.val18, i64 %indvars.iv
  %28 = load i32, ptr %27, align 4, !tbaa !19
  %29 = and i32 %28, 15
  %30 = icmp sgt i32 %29, %2
  br i1 %30, label %48, label %31

31:                                               ; preds = %26
  %32 = load ptr, ptr %23, align 8, !tbaa !61
  %33 = load i32, ptr %24, align 8, !tbaa !65
  %34 = trunc nuw nsw i64 %indvars.iv to i32
  %35 = lshr i32 %34, %33
  %36 = zext nneg i32 %35 to i64
  %37 = getelementptr inbounds nuw ptr, ptr %32, i64 %36
  %38 = load ptr, ptr %37, align 8, !tbaa !66
  %39 = load i32, ptr %0, align 8, !tbaa !67
  %40 = load i32, ptr %25, align 4, !tbaa !68
  %41 = and i32 %40, %34
  %42 = mul nsw i32 %41, %39
  %43 = sext i32 %42 to i64
  %44 = getelementptr inbounds i64, ptr %38, i64 %43
  %45 = load i64, ptr %44, align 8, !tbaa !18
  store i64 %45, ptr %7, align 8, !tbaa !18
  call void @simpleMinimal(ptr noundef nonnull %7, ptr noundef nonnull %5, ptr noundef nonnull %6, ptr noundef %20, i32 noundef %2) #26
  %46 = load i64, ptr %7, align 8, !tbaa !18
  %47 = getelementptr inbounds nuw i64, ptr %15, i64 %indvars.iv
  store i64 %46, ptr %47, align 8, !tbaa !18
  %.val.pre = load i32, ptr %8, align 4, !tbaa !9
  br label %48

48:                                               ; preds = %26, %31
  %.val = phi i32 [ %.val23, %26 ], [ %.val.pre, %31 ]
  %indvars.iv.next = add nuw nsw i64 %indvars.iv, 1
  %49 = sext i32 %.val to i64
  %50 = icmp slt i64 %indvars.iv.next, %49
  br i1 %50, label %26, label %.critedge, !llvm.loop !69

.critedge:                                        ; preds = %48, %Vec_WrdStart.exit
  call void @freePermInfoPtr(ptr noundef %20) #26
  call void @llvm.lifetime.end.p0(i64 8, ptr nonnull %7) #26
  call void @llvm.lifetime.end.p0(i64 8192, ptr nonnull %6) #26
  call void @llvm.lifetime.end.p0(i64 8192, ptr nonnull %5) #26
  ret ptr %9
}